target datalayout = "e-m:e-p270:32:32-p271:32:32-p272:64:64-i64:64-i128:128-f80:128-n8:16:32:64-S128"
target triple = "x86_64-pc-linux-gnu"

%struct.php_ini_builder = type { ptr, i64 }

; Function Attrs: inlinehint nounwind uwtable
define internal void @php_ini_builder_realloc(ptr noundef %0, i64 noundef %1) #1 {
  %3 = alloca ptr, align 8
  %4 = alloca i64, align 8
  store ptr %0, ptr %3, align 8, !tbaa !4
  store i64 %1, ptr %4, align 8, !tbaa !11
  %5 = load ptr, ptr %3, align 8, !tbaa !4
  %6 = getelementptr inbounds nuw %struct.php_ini_builder, ptr %5, i32 0, i32 0
  %7 = load ptr, ptr %6, align 8, !tbaa !15
  %8 = load ptr, ptr %3, align 8, !tbaa !4
  %9 = getelementptr inbounds nuw %struct.php_ini_builder, ptr %8, i32 0, i32 1
  %10 = load i64, ptr %9, align 8, !tbaa !13
  %11 = load i64, ptr %4, align 8, !tbaa !11
  %12 = add i64 %10, %11
  %13 = add i64 %12, 1
  %14 = call ptr @realloc(ptr noundef %7, i64 noundef %13) #7
  %15 = load ptr, ptr %3, align 8, !tbaa !4
  %16 = getelementptr inbounds nuw %struct.php_ini_builder, ptr %15, i32 0, i32 0
  store ptr %14, ptr %16, align 8, !tbaa !15
  ret void
}

; Function Attrs: nounwind uwtable
define dso_local void @php_ini_builder_prepend(ptr noundef %0, ptr noundef %1, i64 noundef %2) #0 {
  %4 = alloca ptr, align 8
  %5 = alloca ptr, align 8
  %6 = alloca i64, align 8
  store ptr %0, ptr %4, align 8, !tbaa !4
  store ptr %1, ptr %5, align 8, !tbaa !9
  store i64 %2, ptr %6, align 8, !tbaa !11
  %7 = load ptr, ptr %4, align 8, !tbaa !4
  %8 = load i64, ptr %6, align 8, !tbaa !11
  call void @php_ini_builder_realloc(ptr noundef %7, i64 noundef %8)
  %9 = load ptr, ptr %4, align 8, !tbaa !4
  %10 = getelementptr inbounds nuw %struct.php_ini_builder, ptr %9, i32 0, i32 1
  %11 = load i64, ptr %10, align 8, !tbaa !13
  %12 = icmp ugt i64 %11, 0
  br i1 %12, label %13, label %25

13:                                               ; preds = %3
  %14 = load ptr, ptr %4, align 8, !tbaa !4
  %15 = getelementptr inbounds nuw %struct.php_ini_builder, ptr %14, i32 0, i32 0
  %16 = load ptr, ptr %15, align 8, !tbaa !15
  %17 = load i64, ptr %6, align 8, !tbaa !11
  %18 = getelementptr inbounds nuw i8, ptr %16, i64 %17
  %19 = load ptr, ptr %4, align 8, !tbaa !4
  %20 = getelementptr inbounds nuw %struct.php_ini_builder, ptr %19, i32 0, i32 0
  %21 = load ptr, ptr %20, align 8, !tbaa !15
  %22 = load ptr, ptr %4, align 8, !tbaa !4
  %23 = getelementptr inbounds nuw %struct.php_ini_builder, ptr %22, i32 0, i32 1
  %24 = load i64, ptr %23, align 8, !tbaa !13
  call void @llvm.memmove.p0.p0.i64(ptr align 1 %18, ptr align 1 %21, i64 %24, i1 false)
  br label %25

25:                                               ; preds = %13, %3
  %26 = load ptr, ptr %4, align 8, !tbaa !4
  %27 = getelementptr inbounds nuw %struct.php_ini_builder, ptr %26, i32 0, i32 0
  %28 = load ptr, ptr %27, align 8, !tbaa !15
  %29 = load ptr, ptr %5, align 8, !tbaa !9
  %30 = load i64, ptr %6, align 8, !tbaa !11
  call void @llvm.memcpy.p0.p0.i64(ptr align 1 %28, ptr align 1 %29, i64 %30, i1 false)
  %31 = load i64, ptr %6, align 8, !tbaa !11
  %32 = load ptr, ptr %4, align 8, !tbaa !4
  %33 = getelementptr inbounds nuw %struct.php_ini_builder, ptr %32, i32 0, i32 1
  %34 = load i64, ptr %33, align 8, !tbaa !13
  %35 = add i64 %34, %31
  store i64 %35, ptr %33, align 8, !tbaa !13
  ret void
}