; Function Attrs: mustprogress nounwind willreturn uwtable
define dso_local void @php_ini_builder_prepend(ptr noundef captures(none) %0, ptr noundef readonly captures(none) %1, i64 noundef %2) local_unnamed_addr #0 {
  %4 = load ptr, ptr %0, align 8, !tbaa !4
  %5 = getelementptr inbounds nuw i8, ptr %0, i64 8
  %6 = load i64, ptr %5, align 8, !tbaa !11
  %7 = add i64 %2, 1
  %8 = add i64 %7, %6
  %9 = tail call ptr @realloc(ptr noundef %4, i64 noundef %8) #5
  store ptr %9, ptr %0, align 8, !tbaa !4
  %10 = load i64, ptr %5, align 8, !tbaa !11
  %.not = icmp eq i64 %10, 0
  br i1 %.not, label %13, label %11

11:                                               ; preds = %3
  %12 = getelementptr inbounds nuw i8, ptr %9, i64 %2
  tail call void @llvm.memmove.p0.p0.i64(ptr align 1 %12, ptr align 1 %9, i64 %10, i1 false)
  br label %13

13:                                               ; preds = %11, %3
  tail call void @llvm.memcpy.p0.p0.i64(ptr align 1 %9, ptr align 1 %1, i64 %2, i1 false)
  %14 = add i64 %10, %2
  store i64 %14, ptr %5, align 8, !tbaa !11
  ret void
}